; Function Attrs: nounwind uwtable
define hidden zeroext i1 @SDL_RemovePath_REAL(ptr noundef %0) local_unnamed_addr #0 {
  %.not = icmp eq ptr %0, null
  br i1 %.not, label %2, label %4

2:                                                ; preds = %1
  %3 = tail call zeroext i1 (ptr, ...) @SDL_SetError_REAL(ptr noundef nonnull @.str, ptr noundef nonnull @.str.1) #8
  br label %6

4:                                                ; preds = %1
  %5 = tail call zeroext i1 @SDL_SYS_RemovePath(ptr noundef nonnull %0) #8
  br label %6

6:                                                ; preds = %4, %2
  %.0 = phi i1 [ %5, %4 ], [ %3, %2 ]
  ret i1 %.0
}